; Function Attrs: null_pointer_is_valid sspstrong uwtable
define internal i32 @fileexp_dissect_makemountpoint_rqst(ptr noundef %0, i32 noundef %1, ptr noundef %2, ptr noundef %3, ptr noundef %4, ptr noundef %5) #0 {
  %7 = alloca i16, align 2
  call void @llvm.lifetime.start.p0(i64 2, ptr nonnull %7) #4
  %8 = getelementptr inbounds nuw i8, ptr %4, i64 25
  %9 = load i8, ptr %8, align 1, !range !6, !noundef !7
  %10 = trunc nuw i8 %9 to i1
  br i1 %10, label %25, label %11

11:                                               ; preds = %6
  %12 = tail call i32 @dissect_ndr_pointer(ptr noundef %0, i32 noundef %1, ptr noundef %2, ptr noundef %3, ptr noundef %4, ptr noundef %5, ptr noundef nonnull @dissect_afsFid, i32 noundef 1, ptr noundef nonnull @.str.376, i32 noundef -1)
  %13 = tail call i32 @dissect_ndr_pointer(ptr noundef %0, i32 noundef %12, ptr noundef %2, ptr noundef %3, ptr noundef %4, ptr noundef %5, ptr noundef nonnull @dissect_afstaggedname, i32 noundef 1, ptr noundef nonnull @.str.450, i32 noundef -1)
  %14 = tail call i32 @dissect_ndr_pointer(ptr noundef %0, i32 noundef %13, ptr noundef %2, ptr noundef %3, ptr noundef %4, ptr noundef %5, ptr noundef nonnull @dissect_afstaggedname, i32 noundef 1, ptr noundef nonnull @.str.450, i32 noundef -1)
  %15 = load i32, ptr @hf_fileexp_fstype, align 4
  %16 = call i32 @dissect_ndr_uint16(ptr noundef %0, i32 noundef %14, ptr noundef %2, ptr noundef %3, ptr noundef %4, ptr noundef %5, i32 noundef %15, ptr noundef nonnull %7)
  %17 = call i32 @dissect_ndr_pointer(ptr noundef %0, i32 noundef %16, ptr noundef %2, ptr noundef %3, ptr noundef %4, ptr noundef %5, ptr noundef nonnull @dissect_afstaggedname, i32 noundef 1, ptr noundef nonnull @.str.450, i32 noundef -1)
  %18 = call i32 @dissect_ndr_pointer(ptr noundef %0, i32 noundef %17, ptr noundef %2, ptr noundef %3, ptr noundef %4, ptr noundef %5, ptr noundef nonnull @dissect_afsstorestatus, i32 noundef 1, ptr noundef nonnull @.str.439, i32 noundef -1)
  %19 = call i32 @dissect_ndr_pointer(ptr noundef %0, i32 noundef %18, ptr noundef %2, ptr noundef %3, ptr noundef %4, ptr noundef %5, ptr noundef nonnull @dissect_minvvp, i32 noundef 1, ptr noundef nonnull @.str.377, i32 noundef -1)
  %20 = call i32 @dissect_afsFlags(ptr noundef %0, i32 noundef %19, ptr noundef %2, ptr noundef %3, ptr noundef %4, ptr noundef %5)
  %21 = getelementptr inbounds nuw i8, ptr %2, i64 8
  %22 = load ptr, ptr %21, align 8
  %23 = load i16, ptr %7, align 2
  %24 = zext i16 %23 to i32
  call void (ptr, i32, ptr, ...) @col_append_fstr(ptr noundef %22, i32 noundef 25, ptr noundef nonnull @.str.479, i32 noundef %24)
  br label %25

25:                                               ; preds = %6, %11
  %.0 = phi i32 [ %20, %11 ], [ %1, %6 ]
  call void @llvm.lifetime.end.p0(i64 2, ptr nonnull %7) #4
  ret i32 %.0
}